target datalayout = "e-m:e-p270:32:32-p271:32:32-p272:64:64-i64:64-i128:128-f80:128-n8:16:32:64-S128"
target triple = "x86_64-pc-linux-gnu"

%struct.evthread_lock_callbacks = type { i32, i32, ptr, ptr, ptr, ptr }
%struct.bufferevent = type { ptr, ptr, %struct.event, %struct.event, ptr, ptr, %struct.event_watermark, %struct.event_watermark, ptr, ptr, ptr, ptr, %struct.timeval, %struct.timeval, i16 }
%struct.event = type { %struct.event_callback, %union.anon.0, i32, i16, i16, ptr, %union.anon.2, %struct.timeval }
%struct.event_callback = type { %struct.anon, i16, i8, i8, %union.anon, ptr }
%struct.anon = type { ptr, ptr }
%union.anon = type { ptr }
%union.anon.0 = type { %struct.anon.1 }
%struct.anon.1 = type { ptr, ptr }
%union.anon.2 = type { %struct.anon.3 }
%struct.anon.3 = type { %struct.anon.4, %struct.timeval }
%struct.anon.4 = type { ptr, ptr }
%struct.event_watermark = type { i64, i64 }
%struct.timeval = type { i64, i64 }
%struct.bufferevent_filtered = type { %struct.bufferevent_private, ptr, ptr, ptr, i32, ptr, ptr, ptr, ptr }
%struct.bufferevent_private = type { %struct.bufferevent, ptr, i8, i16, i16, i16, i32, i32, %struct.event_callback, i32, i32, ptr, i64, i64, ptr, %union.anon.7, ptr }
%union.anon.7 = type { %struct.sockaddr_in6 }
%struct.sockaddr_in6 = type { i16, i16, i32, %struct.in6_addr, i32 }
%struct.in6_addr = type { %union.anon.8 }
%union.anon.8 = type { [4 x i32] }

@evthread_lock_fns_ = external global %struct.evthread_lock_callbacks, align 8

; Function Attrs: nounwind uwtable
define internal i32 @be_readbuf_full(ptr noundef %0, i32 noundef %1) #0 {
  %3 = alloca ptr, align 8
  %4 = alloca i32, align 4
  %5 = alloca ptr, align 8
  store ptr %0, ptr %3, align 8
  store i32 %1, ptr %4, align 4
  call void @llvm.lifetime.start.p0(i64 8, ptr %5) #4
  %6 = load ptr, ptr %3, align 8
  %7 = getelementptr inbounds nuw %struct.bufferevent_filtered, ptr %6, i32 0, i32 0
  %8 = getelementptr inbounds nuw %struct.bufferevent_private, ptr %7, i32 0, i32 0
  store ptr %8, ptr %5, align 8
  %9 = load i32, ptr %4, align 4
  %10 = icmp eq i32 %9, 0
  br i1 %10, label %11, label %27

11:                                               ; preds = %2
  %12 = load ptr, ptr %5, align 8
  %13 = getelementptr inbounds nuw %struct.bufferevent, ptr %12, i32 0, i32 6
  %14 = getelementptr inbounds nuw %struct.event_watermark, ptr %13, i32 0, i32 1
  %15 = load i64, ptr %14, align 8
  %16 = icmp ne i64 %15, 0
  br i1 %16, label %17, label %27

17:                                               ; preds = %11
  %18 = load ptr, ptr %5, align 8
  %19 = getelementptr inbounds nuw %struct.bufferevent, ptr %18, i32 0, i32 4
  %20 = load ptr, ptr %19, align 8
  %21 = call i64 @evbuffer_get_length(ptr noundef %20)
  %22 = load ptr, ptr %5, align 8
  %23 = getelementptr inbounds nuw %struct.bufferevent, ptr %22, i32 0, i32 6
  %24 = getelementptr inbounds nuw %struct.event_watermark, ptr %23, i32 0, i32 1
  %25 = load i64, ptr %24, align 8
  %26 = icmp uge i64 %21, %25
  br label %27

27:                                               ; preds = %17, %11, %2
  %28 = phi i1 [ false, %11 ], [ false, %2 ], [ %26, %17 ]
  %29 = zext i1 %28 to i32
  call void @llvm.lifetime.end.p0(i64 8, ptr %5) #4
  ret i32 %29
}

; Function Attrs: nounwind uwtable
define internal void @bufferevent_filtered_inbuf_cb(ptr noundef %0, ptr noundef %1, ptr noundef %2) #0 {
  %4 = alloca ptr, align 8
  %5 = alloca ptr, align 8
  %6 = alloca ptr, align 8
  %7 = alloca ptr, align 8
  %8 = alloca i32, align 4
  %9 = alloca ptr, align 8
  %10 = alloca ptr, align 8
  %11 = alloca ptr, align 8
  store ptr %0, ptr %4, align 8
  store ptr %1, ptr %5, align 8
  store ptr %2, ptr %6, align 8
  call void @llvm.lifetime.start.p0(i64 8, ptr %7) #4
  %12 = load ptr, ptr %6, align 8
  store ptr %12, ptr %7, align 8
  call void @llvm.lifetime.start.p0(i64 4, ptr %8) #4
  call void @llvm.lifetime.start.p0(i64 8, ptr %9) #4
  %13 = load ptr, ptr %7, align 8
  %14 = getelementptr inbounds nuw %struct.bufferevent_filtered, ptr %13, i32 0, i32 0
  %15 = getelementptr inbounds nuw %struct.bufferevent_private, ptr %14, i32 0, i32 0
  store ptr %15, ptr %9, align 8
  br label %16

16:                                               ; preds = %3
  call void @llvm.lifetime.start.p0(i64 8, ptr %10) #4
  %17 = load ptr, ptr %9, align 8
  %18 = getelementptr inbounds i8, ptr %17, i64 0
  store ptr %18, ptr %10, align 8
  br label %19

19:                                               ; preds = %16
  %20 = load ptr, ptr %10, align 8
  %21 = getelementptr inbounds nuw %struct.bufferevent_private, ptr %20, i32 0, i32 11
  %22 = load ptr, ptr %21, align 8
  %23 = icmp ne ptr %22, null
  br i1 %23, label %24, label %30

24:                                               ; preds = %19
  %25 = load ptr, ptr getelementptr inbounds nuw (%struct.evthread_lock_callbacks, ptr @evthread_lock_fns_, i32 0, i32 4), align 8
  %26 = load ptr, ptr %10, align 8
  %27 = getelementptr inbounds nuw %struct.bufferevent_private, ptr %26, i32 0, i32 11
  %28 = load ptr, ptr %27, align 8
  %29 = call i32 %25(i32 noundef 0, ptr noundef %28)
  br label %30

30:                                               ; preds = %24, %19
  br label %31

31:                                               ; preds = %30
  br label %32

32:                                               ; preds = %31
  call void @llvm.lifetime.end.p0(i64 8, ptr %10) #4
  br label %33

33:                                               ; preds = %32
  br label %34

34:                                               ; preds = %33
  %35 = load ptr, ptr %7, align 8
  %36 = getelementptr inbounds nuw %struct.bufferevent_filtered, ptr %35, i32 0, i32 4
  %37 = load i32, ptr %36, align 8
  %38 = icmp ne i32 %37, 0
  br i1 %38, label %39, label %40

39:                                               ; preds = %34
  store i32 2, ptr %8, align 4
  br label %41

40:                                               ; preds = %34
  store i32 0, ptr %8, align 4
  br label %41

41:                                               ; preds = %40, %39
  %42 = load ptr, ptr %7, align 8
  %43 = load i32, ptr %8, align 4
  %44 = call i32 @be_readbuf_full(ptr noundef %42, i32 noundef %43)
  %45 = icmp ne i32 %44, 0
  br i1 %45, label %67, label %46

46:                                               ; preds = %41
  %47 = load ptr, ptr %9, align 8
  %48 = getelementptr inbounds nuw %struct.bufferevent, ptr %47, i32 0, i32 4
  %49 = load ptr, ptr %48, align 8
  %50 = load ptr, ptr %7, align 8
  %51 = getelementptr inbounds nuw %struct.bufferevent_filtered, ptr %50, i32 0, i32 2
  %52 = load ptr, ptr %51, align 8
  %53 = call i32 @evbuffer_cb_clear_flags(ptr noundef %49, ptr noundef %52, i32 noundef 1)
  %54 = load ptr, ptr %7, align 8
  %55 = getelementptr inbounds nuw %struct.bufferevent_filtered, ptr %54, i32 0, i32 1
  %56 = load ptr, ptr %55, align 8
  %57 = getelementptr inbounds nuw %struct.bufferevent, ptr %56, i32 0, i32 4
  %58 = load ptr, ptr %57, align 8
  %59 = call i64 @evbuffer_get_length(ptr noundef %58)
  %60 = icmp ugt i64 %59, 0
  br i1 %60, label %61, label %66

61:                                               ; preds = %46
  %62 = load ptr, ptr %7, align 8
  %63 = getelementptr inbounds nuw %struct.bufferevent_filtered, ptr %62, i32 0, i32 1
  %64 = load ptr, ptr %63, align 8
  %65 = load ptr, ptr %7, align 8
  call void @be_filter_read_nolock_(ptr noundef %64, ptr noundef %65)
  br label %66

66:                                               ; preds = %61, %46
  br label %67

67:                                               ; preds = %66, %41
  br label %68

68:                                               ; preds = %67
  call void @llvm.lifetime.start.p0(i64 8, ptr %11) #4
  %69 = load ptr, ptr %9, align 8
  %70 = getelementptr inbounds i8, ptr %69, i64 0
  store ptr %70, ptr %11, align 8
  br label %71

71:                                               ; preds = %68
  %72 = load ptr, ptr %11, align 8
  %73 = getelementptr inbounds nuw %struct.bufferevent_private, ptr %72, i32 0, i32 11
  %74 = load ptr, ptr %73, align 8
  %75 = icmp ne ptr %74, null
  br i1 %75, label %76, label %82

76:                                               ; preds = %71
  %77 = load ptr, ptr getelementptr inbounds nuw (%struct.evthread_lock_callbacks, ptr @evthread_lock_fns_, i32 0, i32 5), align 8
  %78 = load ptr, ptr %11, align 8
  %79 = getelementptr inbounds nuw %struct.bufferevent_private, ptr %78, i32 0, i32 11
  %80 = load ptr, ptr %79, align 8
  %81 = call i32 %77(i32 noundef 0, ptr noundef %80)
  br label %82

82:                                               ; preds = %76, %71
  br label %83

83:                                               ; preds = %82
  br label %84

84:                                               ; preds = %83
  call void @llvm.lifetime.end.p0(i64 8, ptr %11) #4
  br label %85

85:                                               ; preds = %84
  br label %86

86:                                               ; preds = %85
  call void @llvm.lifetime.end.p0(i64 8, ptr %9) #4
  call void @llvm.lifetime.end.p0(i64 4, ptr %8) #4
  call void @llvm.lifetime.end.p0(i64 8, ptr %7) #4
  ret void
}