; Function Attrs: nounwind uwtable
define internal void @bufferevent_filtered_inbuf_cb(ptr readnone captures(none) %0, ptr readnone captures(none) %1, ptr noundef %2) #0 {
  %4 = getelementptr inbounds nuw i8, ptr %2, i64 448
  %5 = load ptr, ptr %4, align 8
  %.not = icmp eq ptr %5, null
  br i1 %.not, label %9, label %6

6:                                                ; preds = %3
  %7 = load ptr, ptr getelementptr inbounds nuw (i8, ptr @evthread_lock_fns_, i64 24), align 8
  %8 = tail call i32 %7(i32 noundef 0, ptr noundef nonnull %5) #3
  br label %9

9:                                                ; preds = %6, %3
  %10 = getelementptr inbounds nuw i8, ptr %2, i64 544
  %11 = load i32, ptr %10, align 8
  %.not18 = icmp eq i32 %11, 0
  br i1 %.not18, label %.split, label %.split16.thread

.split:                                           ; preds = %9
  %12 = getelementptr inbounds nuw i8, ptr %2, i64 280
  %13 = load i64, ptr %12, align 8
  %.not.i = icmp eq i64 %13, 0
  br i1 %.not.i, label %.split16.thread, label %.split16

.split16:                                         ; preds = %.split
  %14 = getelementptr inbounds nuw i8, ptr %2, i64 256
  %15 = load ptr, ptr %14, align 8
  %16 = tail call i64 @evbuffer_get_length(ptr noundef %15) #3
  %17 = load i64, ptr %12, align 8
  %.not24 = icmp ult i64 %16, %17
  br i1 %.not24, label %.split16.thread, label %30

.split16.thread:                                  ; preds = %.split, %9, %.split16
  %18 = getelementptr inbounds nuw i8, ptr %2, i64 256
  %19 = load ptr, ptr %18, align 8
  %20 = getelementptr inbounds nuw i8, ptr %2, i64 528
  %21 = load ptr, ptr %20, align 8
  %22 = tail call i32 @evbuffer_cb_clear_flags(ptr noundef %19, ptr noundef %21, i32 noundef 1) #3
  %23 = getelementptr inbounds nuw i8, ptr %2, i64 520
  %24 = load ptr, ptr %23, align 8
  %25 = getelementptr inbounds nuw i8, ptr %24, i64 256
  %26 = load ptr, ptr %25, align 8
  %27 = tail call i64 @evbuffer_get_length(ptr noundef %26) #3
  %.not20 = icmp eq i64 %27, 0
  br i1 %.not20, label %30, label %28

28:                                               ; preds = %.split16.thread
  %29 = load ptr, ptr %23, align 8
  tail call fastcc void @be_filter_read_nolock_(ptr noundef %29, ptr noundef nonnull %2)
  br label %30

30:                                               ; preds = %.split16, %28, %.split16.thread
  %31 = load ptr, ptr %4, align 8
  %.not21 = icmp eq ptr %31, null
  br i1 %.not21, label %35, label %32

32:                                               ; preds = %30
  %33 = load ptr, ptr getelementptr inbounds nuw (i8, ptr @evthread_lock_fns_, i64 32), align 8
  %34 = tail call i32 %33(i32 noundef 0, ptr noundef nonnull %31) #3
  br label %35

35:                                               ; preds = %32, %30
  ret void
}